target datalayout = "e-m:e-p270:32:32-p271:32:32-p272:64:64-i64:64-i128:128-f80:128-n8:16:32:64-S128"
target triple = "x86_64-pc-linux-gnu"

%struct.__mm_loadl_epi64_struct = type { i64 }
%struct.__mm_storel_epi64_struct = type { i64 }

; Function Attrs: alwaysinline nounwind uwtable
define internal void @_mm_storel_epi64(ptr noundef %0, <2 x i64> noundef %1) #3 {
  %3 = alloca ptr, align 8
  %4 = alloca <2 x i64>, align 16
  store ptr %0, ptr %3, align 8, !tbaa !3
  store <2 x i64> %1, ptr %4, align 16, !tbaa !11
  %5 = load <2 x i64>, ptr %4, align 16, !tbaa !11
  %6 = extractelement <2 x i64> %5, i32 0
  %7 = load ptr, ptr %3, align 8, !tbaa !3
  %8 = getelementptr inbounds nuw %struct.__mm_storel_epi64_struct, ptr %7, i32 0, i32 0
  store i64 %6, ptr %8, align 1, !tbaa !11
  ret void
}

; Function Attrs: alwaysinline nounwind uwtable
define internal <2 x i64> @_mm_packus_epi16(<2 x i64> noundef %0, <2 x i64> noundef %1) #3 {
  %3 = alloca <2 x i64>, align 16
  %4 = alloca <2 x i64>, align 16
  store <2 x i64> %0, ptr %3, align 16, !tbaa !11
  store <2 x i64> %1, ptr %4, align 16, !tbaa !11
  %5 = load <2 x i64>, ptr %3, align 16, !tbaa !11
  %6 = bitcast <2 x i64> %5 to <8 x i16>
  %7 = load <2 x i64>, ptr %4, align 16, !tbaa !11
  %8 = bitcast <2 x i64> %7 to <8 x i16>
  %9 = call <16 x i8> @llvm.x86.sse2.packuswb.128(<8 x i16> %6, <8 x i16> %8)
  %10 = bitcast <16 x i8> %9 to <2 x i64>
  ret <2 x i64> %10
}

; Function Attrs: alwaysinline nounwind uwtable
define internal <2 x i64> @_mm_mulhi_epu16(<2 x i64> noundef %0, <2 x i64> noundef %1) #3 {
  %3 = alloca <2 x i64>, align 16
  %4 = alloca <2 x i64>, align 16
  store <2 x i64> %0, ptr %3, align 16, !tbaa !11
  store <2 x i64> %1, ptr %4, align 16, !tbaa !11
  %5 = load <2 x i64>, ptr %3, align 16, !tbaa !11
  %6 = bitcast <2 x i64> %5 to <8 x i16>
  %7 = load <2 x i64>, ptr %4, align 16, !tbaa !11
  %8 = bitcast <2 x i64> %7 to <8 x i16>
  %9 = call <8 x i16> @llvm.x86.sse2.pmulhu.w(<8 x i16> %6, <8 x i16> %8)
  %10 = bitcast <8 x i16> %9 to <2 x i64>
  ret <2 x i64> %10
}

; Function Attrs: alwaysinline nounwind uwtable
define internal <2 x i64> @_mm_add_epi16(<2 x i64> noundef %0, <2 x i64> noundef %1) #3 {
  %3 = alloca <2 x i64>, align 16
  %4 = alloca <2 x i64>, align 16
  store <2 x i64> %0, ptr %3, align 16, !tbaa !11
  store <2 x i64> %1, ptr %4, align 16, !tbaa !11
  %5 = load <2 x i64>, ptr %3, align 16, !tbaa !11
  %6 = bitcast <2 x i64> %5 to <8 x i16>
  %7 = load <2 x i64>, ptr %4, align 16, !tbaa !11
  %8 = bitcast <2 x i64> %7 to <8 x i16>
  %9 = add <8 x i16> %6, %8
  %10 = bitcast <8 x i16> %9 to <2 x i64>
  ret <2 x i64> %10
}

; Function Attrs: alwaysinline nounwind uwtable
define internal <2 x i64> @_mm_mullo_epi16(<2 x i64> noundef %0, <2 x i64> noundef %1) #3 {
  %3 = alloca <2 x i64>, align 16
  %4 = alloca <2 x i64>, align 16
  store <2 x i64> %0, ptr %3, align 16, !tbaa !11
  store <2 x i64> %1, ptr %4, align 16, !tbaa !11
  %5 = load <2 x i64>, ptr %3, align 16, !tbaa !11
  %6 = bitcast <2 x i64> %5 to <8 x i16>
  %7 = load <2 x i64>, ptr %4, align 16, !tbaa !11
  %8 = bitcast <2 x i64> %7 to <8 x i16>
  %9 = mul <8 x i16> %6, %8
  %10 = bitcast <8 x i16> %9 to <2 x i64>
  ret <2 x i64> %10
}

; Function Attrs: alwaysinline nounwind uwtable
define internal <2 x i64> @_mm_or_si128(<2 x i64> noundef %0, <2 x i64> noundef %1) #3 {
  %3 = alloca <2 x i64>, align 16
  %4 = alloca <2 x i64>, align 16
  store <2 x i64> %0, ptr %3, align 16, !tbaa !11
  store <2 x i64> %1, ptr %4, align 16, !tbaa !11
  %5 = load <2 x i64>, ptr %3, align 16, !tbaa !11
  %6 = load <2 x i64>, ptr %4, align 16, !tbaa !11
  %7 = or <2 x i64> %5, %6
  ret <2 x i64> %7
}

; Function Attrs: alwaysinline nounwind uwtable
define internal <2 x i64> @_mm_unpacklo_epi8(<2 x i64> noundef %0, <2 x i64> noundef %1) #3 {
  %3 = alloca <2 x i64>, align 16
  %4 = alloca <2 x i64>, align 16
  store <2 x i64> %0, ptr %3, align 16, !tbaa !11
  store <2 x i64> %1, ptr %4, align 16, !tbaa !11
  %5 = load <2 x i64>, ptr %3, align 16, !tbaa !11
  %6 = bitcast <2 x i64> %5 to <16 x i8>
  %7 = load <2 x i64>, ptr %4, align 16, !tbaa !11
  %8 = bitcast <2 x i64> %7 to <16 x i8>
  %9 = shufflevector <16 x i8> %6, <16 x i8> %8, <16 x i32> <i32 0, i32 16, i32 1, i32 17, i32 2, i32 18, i32 3, i32 19, i32 4, i32 20, i32 5, i32 21, i32 6, i32 22, i32 7, i32 23>
  %10 = bitcast <16 x i8> %9 to <2 x i64>
  ret <2 x i64> %10
}

; Function Attrs: alwaysinline nounwind uwtable
define internal <2 x i64> @_mm_loadl_epi64(ptr noundef %0) #3 {
  %2 = alloca ptr, align 8
  %3 = alloca <2 x i64>, align 16
  store ptr %0, ptr %2, align 8, !tbaa !3
  %4 = load ptr, ptr %2, align 8, !tbaa !3
  %5 = getelementptr inbounds nuw %struct.__mm_loadl_epi64_struct, ptr %4, i32 0, i32 0
  %6 = load i64, ptr %5, align 1, !tbaa !11
  %7 = insertelement <2 x i64> poison, i64 %6, i32 0
  %8 = insertelement <2 x i64> %7, i64 0, i32 1
  store <2 x i64> %8, ptr %3, align 16, !tbaa !11
  %9 = load <2 x i64>, ptr %3, align 16, !tbaa !11
  ret <2 x i64> %9
}

; Function Attrs: alwaysinline nounwind uwtable
define internal <2 x i64> @_mm_set_epi16(i16 noundef signext %0, i16 noundef signext %1, i16 noundef signext %2, i16 noundef signext %3, i16 noundef signext %4, i16 noundef signext %5, i16 noundef signext %6, i16 noundef signext %7) #3 {
  %9 = alloca i16, align 2
  %10 = alloca i16, align 2
  %11 = alloca i16, align 2
  %12 = alloca i16, align 2
  %13 = alloca i16, align 2
  %14 = alloca i16, align 2
  %15 = alloca i16, align 2
  %16 = alloca i16, align 2
  %17 = alloca <8 x i16>, align 16
  store i16 %0, ptr %9, align 2, !tbaa !39
  store i16 %1, ptr %10, align 2, !tbaa !39
  store i16 %2, ptr %11, align 2, !tbaa !39
  store i16 %3, ptr %12, align 2, !tbaa !39
  store i16 %4, ptr %13, align 2, !tbaa !39
  store i16 %5, ptr %14, align 2, !tbaa !39
  store i16 %6, ptr %15, align 2, !tbaa !39
  store i16 %7, ptr %16, align 2, !tbaa !39
  %18 = load i16, ptr %16, align 2, !tbaa !39
  %19 = insertelement <8 x i16> poison, i16 %18, i32 0
  %20 = load i16, ptr %15, align 2, !tbaa !39
  %21 = insertelement <8 x i16> %19, i16 %20, i32 1
  %22 = load i16, ptr %14, align 2, !tbaa !39
  %23 = insertelement <8 x i16> %21, i16 %22, i32 2
  %24 = load i16, ptr %13, align 2, !tbaa !39
  %25 = insertelement <8 x i16> %23, i16 %24, i32 3
  %26 = load i16, ptr %12, align 2, !tbaa !39
  %27 = insertelement <8 x i16> %25, i16 %26, i32 4
  %28 = load i16, ptr %11, align 2, !tbaa !39
  %29 = insertelement <8 x i16> %27, i16 %28, i32 5
  %30 = load i16, ptr %10, align 2, !tbaa !39
  %31 = insertelement <8 x i16> %29, i16 %30, i32 6
  %32 = load i16, ptr %9, align 2, !tbaa !39
  %33 = insertelement <8 x i16> %31, i16 %32, i32 7
  store <8 x i16> %33, ptr %17, align 16, !tbaa !11
  %34 = load <8 x i16>, ptr %17, align 16, !tbaa !11
  %35 = bitcast <8 x i16> %34 to <2 x i64>
  ret <2 x i64> %35
}

; Function Attrs: alwaysinline nounwind uwtable
define internal <2 x i64> @_mm_set1_epi16(i16 noundef signext %0) #3 {
  %2 = alloca i16, align 2
  store i16 %0, ptr %2, align 2, !tbaa !39
  %3 = load i16, ptr %2, align 2, !tbaa !39
  %4 = load i16, ptr %2, align 2, !tbaa !39
  %5 = load i16, ptr %2, align 2, !tbaa !39
  %6 = load i16, ptr %2, align 2, !tbaa !39
  %7 = load i16, ptr %2, align 2, !tbaa !39
  %8 = load i16, ptr %2, align 2, !tbaa !39
  %9 = load i16, ptr %2, align 2, !tbaa !39
  %10 = load i16, ptr %2, align 2, !tbaa !39
  %11 = call <2 x i64> @_mm_set_epi16(i16 noundef signext %3, i16 noundef signext %4, i16 noundef signext %5, i16 noundef signext %6, i16 noundef signext %7, i16 noundef signext %8, i16 noundef signext %9, i16 noundef signext %10)
  ret <2 x i64> %11
}

; Function Attrs: alwaysinline nounwind uwtable
define internal <2 x i64> @_mm_setzero_si128() #3 {
  %1 = alloca <2 x i64>, align 16
  store <2 x i64> zeroinitializer, ptr %1, align 16, !tbaa !11
  %2 = load <2 x i64>, ptr %1, align 16, !tbaa !11
  ret <2 x i64> %2
}

; Function Attrs: nounwind uwtable
define internal void @MultARGBRow_SSE2(ptr noundef %0, i32 noundef %1, i32 noundef %2) #1 {
  %4 = alloca ptr, align 8
  %5 = alloca i32, align 4
  %6 = alloca i32, align 4
  %7 = alloca i32, align 4
  %8 = alloca i32, align 4
  %9 = alloca <2 x i64>, align 16
  %10 = alloca <2 x i64>, align 16
  %11 = alloca <2 x i64>, align 16
  %12 = alloca <2 x i64>, align 16
  %13 = alloca <2 x i64>, align 16
  %14 = alloca <2 x i64>, align 16
  %15 = alloca <2 x i64>, align 16
  %16 = alloca <2 x i64>, align 16
  %17 = alloca <2 x i64>, align 16
  %18 = alloca <2 x i64>, align 16
  %19 = alloca <2 x i64>, align 16
  %20 = alloca <2 x i64>, align 16
  %21 = alloca <2 x i64>, align 16
  store ptr %0, ptr %4, align 8, !tbaa !7
  store i32 %1, ptr %5, align 4, !tbaa !9
  store i32 %2, ptr %6, align 4, !tbaa !9
  call void @llvm.lifetime.start.p0(i64 4, ptr %7) #6
  store i32 0, ptr %7, align 4, !tbaa !9
  %22 = load i32, ptr %6, align 4, !tbaa !9
  %23 = icmp ne i32 %22, 0
  br i1 %23, label %75, label %24

24:                                               ; preds = %3
  call void @llvm.lifetime.start.p0(i64 4, ptr %8) #6
  store i32 2, ptr %8, align 4, !tbaa !9
  call void @llvm.lifetime.start.p0(i64 16, ptr %9) #6
  %25 = call <2 x i64> @_mm_setzero_si128()
  store <2 x i64> %25, ptr %9, align 16, !tbaa !11
  call void @llvm.lifetime.start.p0(i64 16, ptr %10) #6
  %26 = call <2 x i64> @_mm_set1_epi16(i16 noundef signext 128)
  store <2 x i64> %26, ptr %10, align 16, !tbaa !11
  call void @llvm.lifetime.start.p0(i64 16, ptr %11) #6
  %27 = call <2 x i64> @_mm_set1_epi16(i16 noundef signext 257)
  store <2 x i64> %27, ptr %11, align 16, !tbaa !11
  call void @llvm.lifetime.start.p0(i64 16, ptr %12) #6
  %28 = call <2 x i64> @_mm_set_epi16(i16 noundef signext 0, i16 noundef signext 255, i16 noundef signext 0, i16 noundef signext 0, i16 noundef signext 0, i16 noundef signext 255, i16 noundef signext 0, i16 noundef signext 0)
  store <2 x i64> %28, ptr %12, align 16, !tbaa !11
  store i32 0, ptr %7, align 4, !tbaa !9
  br label %29

29:                                               ; preds = %71, %24
  %30 = load i32, ptr %7, align 4, !tbaa !9
  %31 = add nsw i32 %30, 2
  %32 = load i32, ptr %5, align 4, !tbaa !9
  %33 = icmp sle i32 %31, %32
  br i1 %33, label %34, label %74

34:                                               ; preds = %29
  call void @llvm.lifetime.start.p0(i64 16, ptr %13) #6
  %35 = load ptr, ptr %4, align 8, !tbaa !7
  %36 = load i32, ptr %7, align 4, !tbaa !9
  %37 = sext i32 %36 to i64
  %38 = getelementptr inbounds i32, ptr %35, i64 %37
  %39 = call <2 x i64> @_mm_loadl_epi64(ptr noundef %38)
  store <2 x i64> %39, ptr %13, align 16, !tbaa !11
  call void @llvm.lifetime.start.p0(i64 16, ptr %14) #6
  %40 = load <2 x i64>, ptr %13, align 16, !tbaa !11
  %41 = load <2 x i64>, ptr %9, align 16, !tbaa !11
  %42 = call <2 x i64> @_mm_unpacklo_epi8(<2 x i64> noundef %40, <2 x i64> noundef %41)
  store <2 x i64> %42, ptr %14, align 16, !tbaa !11
  call void @llvm.lifetime.start.p0(i64 16, ptr %15) #6
  %43 = load <2 x i64>, ptr %14, align 16, !tbaa !11
  %44 = load <2 x i64>, ptr %12, align 16, !tbaa !11
  %45 = call <2 x i64> @_mm_or_si128(<2 x i64> noundef %43, <2 x i64> noundef %44)
  store <2 x i64> %45, ptr %15, align 16, !tbaa !11
  call void @llvm.lifetime.start.p0(i64 16, ptr %16) #6
  %46 = load <2 x i64>, ptr %15, align 16, !tbaa !11
  %47 = bitcast <2 x i64> %46 to <8 x i16>
  %48 = shufflevector <8 x i16> %47, <8 x i16> poison, <8 x i32> <i32 3, i32 3, i32 3, i32 2, i32 4, i32 5, i32 6, i32 7>
  %49 = bitcast <8 x i16> %48 to <2 x i64>
  store <2 x i64> %49, ptr %16, align 16, !tbaa !11
  call void @llvm.lifetime.start.p0(i64 16, ptr %17) #6
  %50 = load <2 x i64>, ptr %16, align 16, !tbaa !11
  %51 = bitcast <2 x i64> %50 to <8 x i16>
  %52 = shufflevector <8 x i16> %51, <8 x i16> poison, <8 x i32> <i32 0, i32 1, i32 2, i32 3, i32 7, i32 7, i32 7, i32 6>
  %53 = bitcast <8 x i16> %52 to <2 x i64>
  store <2 x i64> %53, ptr %17, align 16, !tbaa !11
  call void @llvm.lifetime.start.p0(i64 16, ptr %18) #6
  %54 = load <2 x i64>, ptr %17, align 16, !tbaa !11
  %55 = load <2 x i64>, ptr %14, align 16, !tbaa !11
  %56 = call <2 x i64> @_mm_mullo_epi16(<2 x i64> noundef %54, <2 x i64> noundef %55)
  store <2 x i64> %56, ptr %18, align 16, !tbaa !11
  call void @llvm.lifetime.start.p0(i64 16, ptr %19) #6
  %57 = load <2 x i64>, ptr %18, align 16, !tbaa !11
  %58 = load <2 x i64>, ptr %10, align 16, !tbaa !11
  %59 = call <2 x i64> @_mm_add_epi16(<2 x i64> noundef %57, <2 x i64> noundef %58)
  store <2 x i64> %59, ptr %19, align 16, !tbaa !11
  call void @llvm.lifetime.start.p0(i64 16, ptr %20) #6
  %60 = load <2 x i64>, ptr %19, align 16, !tbaa !11
  %61 = load <2 x i64>, ptr %11, align 16, !tbaa !11
  %62 = call <2 x i64> @_mm_mulhi_epu16(<2 x i64> noundef %60, <2 x i64> noundef %61)
  store <2 x i64> %62, ptr %20, align 16, !tbaa !11
  call void @llvm.lifetime.start.p0(i64 16, ptr %21) #6
  %63 = load <2 x i64>, ptr %20, align 16, !tbaa !11
  %64 = load <2 x i64>, ptr %9, align 16, !tbaa !11
  %65 = call <2 x i64> @_mm_packus_epi16(<2 x i64> noundef %63, <2 x i64> noundef %64)
  store <2 x i64> %65, ptr %21, align 16, !tbaa !11
  %66 = load ptr, ptr %4, align 8, !tbaa !7
  %67 = load i32, ptr %7, align 4, !tbaa !9
  %68 = sext i32 %67 to i64
  %69 = getelementptr inbounds i32, ptr %66, i64 %68
  %70 = load <2 x i64>, ptr %21, align 16, !tbaa !11
  call void @_mm_storel_epi64(ptr noundef %69, <2 x i64> noundef %70)
  call void @llvm.lifetime.end.p0(i64 16, ptr %21) #6
  call void @llvm.lifetime.end.p0(i64 16, ptr %20) #6
  call void @llvm.lifetime.end.p0(i64 16, ptr %19) #6
  call void @llvm.lifetime.end.p0(i64 16, ptr %18) #6
  call void @llvm.lifetime.end.p0(i64 16, ptr %17) #6
  call void @llvm.lifetime.end.p0(i64 16, ptr %16) #6
  call void @llvm.lifetime.end.p0(i64 16, ptr %15) #6
  call void @llvm.lifetime.end.p0(i64 16, ptr %14) #6
  call void @llvm.lifetime.end.p0(i64 16, ptr %13) #6
  br label %71

71:                                               ; preds = %34
  %72 = load i32, ptr %7, align 4, !tbaa !9
  %73 = add nsw i32 %72, 2
  store i32 %73, ptr %7, align 4, !tbaa !9
  br label %29, !llvm.loop !12

74:                                               ; preds = %29
  call void @llvm.lifetime.end.p0(i64 16, ptr %12) #6
  call void @llvm.lifetime.end.p0(i64 16, ptr %11) #6
  call void @llvm.lifetime.end.p0(i64 16, ptr %10) #6
  call void @llvm.lifetime.end.p0(i64 16, ptr %9) #6
  call void @llvm.lifetime.end.p0(i64 4, ptr %8) #6
  br label %75

75:                                               ; preds = %74, %3
  %76 = load i32, ptr %7, align 4, !tbaa !9
  %77 = load i32, ptr %5, align 4, !tbaa !9
  %78 = sub nsw i32 %77, %76
  store i32 %78, ptr %5, align 4, !tbaa !9
  %79 = load i32, ptr %5, align 4, !tbaa !9
  %80 = icmp sgt i32 %79, 0
  br i1 %80, label %81, label %88

81:                                               ; preds = %75
  %82 = load ptr, ptr %4, align 8, !tbaa !7
  %83 = load i32, ptr %7, align 4, !tbaa !9
  %84 = sext i32 %83 to i64
  %85 = getelementptr inbounds i32, ptr %82, i64 %84
  %86 = load i32, ptr %5, align 4, !tbaa !9
  %87 = load i32, ptr %6, align 4, !tbaa !9
  call void @WebPMultARGBRow_C(ptr noundef %85, i32 noundef %86, i32 noundef %87)
  br label %88

88:                                               ; preds = %81, %75
  call void @llvm.lifetime.end.p0(i64 4, ptr %7) #6
  ret void
}