; Function Attrs: nounwind uwtable
define internal void @MultARGBRow_SSE2(ptr noundef %0, i32 noundef %1, i32 noundef %2) #1 {
  %.not = icmp ne i32 %2, 0
  %.not3132 = icmp slt i32 %1, 2
  %or.cond = or i1 %.not, %.not3132
  br i1 %or.cond, label %.loopexit, label %.lr.ph.preheader

.lr.ph.preheader:                                 ; preds = %3
  %4 = zext nneg i32 %1 to i64
  br label %.lr.ph

.lr.ph:                                           ; preds = %.lr.ph.preheader, %.lr.ph
  %indvars.iv34 = phi i64 [ 0, %.lr.ph.preheader ], [ %indvars.iv.next35, %.lr.ph ]
  %indvars.iv = phi i64 [ 2, %.lr.ph.preheader ], [ %indvars.iv.next, %.lr.ph ]
  %5 = getelementptr inbounds nuw i32, ptr %0, i64 %indvars.iv34
  %6 = load i64, ptr %5, align 1, !tbaa !7
  %7 = insertelement <2 x i64> poison, i64 %6, i64 0
  %8 = bitcast <2 x i64> %7 to <16 x i8>
  %9 = shufflevector <16 x i8> %8, <16 x i8> <i8 0, i8 0, i8 0, i8 0, i8 0, i8 0, i8 0, i8 0, i8 poison, i8 poison, i8 poison, i8 poison, i8 poison, i8 poison, i8 poison, i8 poison>, <16 x i32> <i32 0, i32 16, i32 1, i32 17, i32 2, i32 18, i32 3, i32 19, i32 4, i32 20, i32 5, i32 21, i32 6, i32 22, i32 7, i32 23>
  %10 = bitcast <16 x i8> %9 to <8 x i16>
  %11 = or <8 x i16> %10, <i16 poison, i16 poison, i16 255, i16 0, i16 poison, i16 poison, i16 255, i16 0>
  %12 = shufflevector <8 x i16> %11, <8 x i16> poison, <8 x i32> <i32 3, i32 3, i32 3, i32 2, i32 7, i32 7, i32 7, i32 6>
  %13 = mul nuw <8 x i16> %12, %10
  %14 = add <8 x i16> %13, splat (i16 128)
  %15 = tail call <8 x i16> @llvm.x86.sse2.pmulhu.w(<8 x i16> %14, <8 x i16> splat (i16 257))
  %16 = tail call <16 x i8> @llvm.x86.sse2.packuswb.128(<8 x i16> %15, <8 x i16> poison)
  %17 = bitcast <16 x i8> %16 to <2 x i64>
  %18 = extractelement <2 x i64> %17, i64 0
  store i64 %18, ptr %5, align 1, !tbaa !7
  %indvars.iv.next = add nuw nsw i64 %indvars.iv, 2
  %.not31 = icmp samesign ugt i64 %indvars.iv.next, %4
  %indvars.iv.next35 = add nuw nsw i64 %indvars.iv34, 2
  br i1 %.not31, label %.loopexit.loopexit, label %.lr.ph, !llvm.loop !8

.loopexit.loopexit:                               ; preds = %.lr.ph
  %19 = trunc nuw nsw i64 %indvars.iv to i32
  br label %.loopexit

.loopexit:                                        ; preds = %.loopexit.loopexit, %3
  %.0 = phi i32 [ 0, %3 ], [ %19, %.loopexit.loopexit ]
  %20 = sub nsw i32 %1, %.0
  %21 = icmp sgt i32 %20, 0
  br i1 %21, label %22, label %25

22:                                               ; preds = %.loopexit
  %23 = zext nneg i32 %.0 to i64
  %24 = getelementptr inbounds nuw i32, ptr %0, i64 %23
  tail call void @WebPMultARGBRow_C(ptr noundef %24, i32 noundef %20, i32 noundef %2) #6
  br label %25

25:                                               ; preds = %22, %.loopexit
  ret void
}